; Function Attrs: nounwind uwtable
define dso_local void @private_data_string(i16 noundef zeroext %0, ptr noundef captures(none) %1, i32 noundef %2) #1 {
  %4 = icmp sgt i32 %2, 0
  br i1 %4, label %5, label %.thread

5:                                                ; preds = %3
  store i8 0, ptr %1, align 1
  %6 = icmp samesign ult i32 %2, 69
  br i1 %6, label %.thread, label %8

.thread:                                          ; preds = %3, %5
  %7 = tail call i32 (ptr, ...) @error(ptr noundef nonnull @.str.395) #24
  br label %49

8:                                                ; preds = %5
  %9 = zext i16 %0 to i64
  %10 = and i64 %9, 32
  %.not = icmp eq i64 %10, 0
  br i1 %.not, label %.thread97, label %11

11:                                               ; preds = %8
  %strlen37 = tail call i64 @strlen(ptr nonnull dereferenceable(1) %1)
  %endptr38 = getelementptr inbounds i8, ptr %1, i64 %strlen37
  tail call void @llvm.memcpy.p0.p0.i64(ptr noundef nonnull align 1 dereferenceable(9) %endptr38, ptr noundef nonnull align 1 dereferenceable(9) @.str.396, i64 9, i1 false)
  %.pre83.pre84.pre86.pre88.pre90.pre92.pre94.pre = load i8, ptr %1, align 1
  %12 = and i64 %9, 256
  %.not39 = icmp eq i64 %12, 0
  br i1 %.not39, label %16, label %14

.thread97:                                        ; preds = %8
  %13 = and i64 %9, 256
  %.not3999 = icmp eq i64 %13, 0
  br i1 %.not3999, label %.thread104, label %.thread101

14:                                               ; preds = %11
  %.not40 = icmp eq i8 %.pre83.pre84.pre86.pre88.pre90.pre92.pre94.pre, 0
  br i1 %.not40, label %.thread101, label %15

15:                                               ; preds = %14
  %strlen41 = tail call i64 @strlen(ptr nonnull dereferenceable(1) %1)
  %endptr42 = getelementptr inbounds i8, ptr %1, i64 %strlen41
  store i16 44, ptr %endptr42, align 1
  br label %.thread101

.thread101:                                       ; preds = %.thread97, %15, %14
  %strlen43 = tail call i64 @strlen(ptr nonnull dereferenceable(1) %1)
  %endptr44 = getelementptr inbounds i8, ptr %1, i64 %strlen43
  tail call void @llvm.memcpy.p0.p0.i64(ptr noundef nonnull align 1 dereferenceable(7) %endptr44, ptr noundef nonnull align 1 dereferenceable(7) @.str.397, i64 7, i1 false)
  %.pre83.pre84.pre86.pre88.pre90.pre92.pre = load i8, ptr %1, align 1
  br label %16

16:                                               ; preds = %.thread101, %11
  %.pre83.pre84.pre86.pre88.pre90.pre92 = phi i8 [ %.pre83.pre84.pre86.pre88.pre90.pre92.pre, %.thread101 ], [ %.pre83.pre84.pre86.pre88.pre90.pre92.pre94.pre, %11 ]
  %17 = and i64 %9, 1
  %.not45 = icmp eq i64 %17, 0
  br i1 %.not45, label %21, label %19

.thread104:                                       ; preds = %.thread97
  %18 = and i64 %9, 1
  %.not45106 = icmp eq i64 %18, 0
  br i1 %.not45106, label %.thread111, label %.thread108

19:                                               ; preds = %16
  %.not46 = icmp eq i8 %.pre83.pre84.pre86.pre88.pre90.pre92, 0
  br i1 %.not46, label %.thread108, label %20

20:                                               ; preds = %19
  %strlen47 = tail call i64 @strlen(ptr nonnull dereferenceable(1) %1)
  %endptr48 = getelementptr inbounds i8, ptr %1, i64 %strlen47
  store i16 44, ptr %endptr48, align 1
  br label %.thread108

.thread108:                                       ; preds = %.thread104, %20, %19
  %strlen49 = tail call i64 @strlen(ptr nonnull dereferenceable(1) %1)
  %endptr50 = getelementptr inbounds i8, ptr %1, i64 %strlen49
  tail call void @llvm.memcpy.p0.p0.i64(ptr noundef nonnull align 1 dereferenceable(5) %endptr50, ptr noundef nonnull align 1 dereferenceable(5) @.str.398, i64 5, i1 false)
  %.pre83.pre84.pre86.pre88.pre90.pre = load i8, ptr %1, align 1
  br label %21

21:                                               ; preds = %.thread108, %16
  %.pre83.pre84.pre86.pre88.pre90 = phi i8 [ %.pre83.pre84.pre86.pre88.pre90.pre, %.thread108 ], [ %.pre83.pre84.pre86.pre88.pre90.pre92, %16 ]
  %22 = and i64 %9, 2
  %.not51 = icmp eq i64 %22, 0
  br i1 %.not51, label %26, label %24

.thread111:                                       ; preds = %.thread104
  %23 = and i64 %9, 2
  %.not51113 = icmp eq i64 %23, 0
  br i1 %.not51113, label %.thread118, label %.thread115

24:                                               ; preds = %21
  %.not52 = icmp eq i8 %.pre83.pre84.pre86.pre88.pre90, 0
  br i1 %.not52, label %.thread115, label %25

25:                                               ; preds = %24
  %strlen53 = tail call i64 @strlen(ptr nonnull dereferenceable(1) %1)
  %endptr54 = getelementptr inbounds i8, ptr %1, i64 %strlen53
  store i16 44, ptr %endptr54, align 1
  br label %.thread115

.thread115:                                       ; preds = %.thread111, %25, %24
  %strlen55 = tail call i64 @strlen(ptr nonnull dereferenceable(1) %1)
  %endptr56 = getelementptr inbounds i8, ptr %1, i64 %strlen55
  tail call void @llvm.memcpy.p0.p0.i64(ptr noundef nonnull align 1 dereferenceable(6) %endptr56, ptr noundef nonnull align 1 dereferenceable(6) @.str.399, i64 6, i1 false)
  %.pre83.pre84.pre86.pre88.pre = load i8, ptr %1, align 1
  br label %26

26:                                               ; preds = %.thread115, %21
  %.pre83.pre84.pre86.pre88 = phi i8 [ %.pre83.pre84.pre86.pre88.pre, %.thread115 ], [ %.pre83.pre84.pre86.pre88.pre90, %21 ]
  %27 = and i64 %9, 4
  %.not57 = icmp eq i64 %27, 0
  br i1 %.not57, label %31, label %29

.thread118:                                       ; preds = %.thread111
  %28 = and i64 %9, 4
  %.not57120 = icmp eq i64 %28, 0
  br i1 %.not57120, label %.thread125, label %.thread122

29:                                               ; preds = %26
  %.not58 = icmp eq i8 %.pre83.pre84.pre86.pre88, 0
  br i1 %.not58, label %.thread122, label %30

30:                                               ; preds = %29
  %strlen59 = tail call i64 @strlen(ptr nonnull dereferenceable(1) %1)
  %endptr60 = getelementptr inbounds i8, ptr %1, i64 %strlen59
  store i16 44, ptr %endptr60, align 1
  br label %.thread122

.thread122:                                       ; preds = %.thread118, %30, %29
  %strlen61 = tail call i64 @strlen(ptr nonnull dereferenceable(1) %1)
  %endptr62 = getelementptr inbounds i8, ptr %1, i64 %strlen61
  tail call void @llvm.memcpy.p0.p0.i64(ptr noundef nonnull align 1 dereferenceable(11) %endptr62, ptr noundef nonnull align 1 dereferenceable(11) @.str.400, i64 11, i1 false)
  %.pre83.pre84.pre86.pre = load i8, ptr %1, align 1
  br label %31

31:                                               ; preds = %.thread122, %26
  %.pre83.pre84.pre86 = phi i8 [ %.pre83.pre84.pre86.pre, %.thread122 ], [ %.pre83.pre84.pre86.pre88, %26 ]
  %32 = and i64 %9, 64
  %.not63 = icmp eq i64 %32, 0
  br i1 %.not63, label %36, label %34

.thread125:                                       ; preds = %.thread118
  %33 = and i64 %9, 64
  %.not63127 = icmp eq i64 %33, 0
  br i1 %.not63127, label %.thread132, label %.thread129

34:                                               ; preds = %31
  %.not64 = icmp eq i8 %.pre83.pre84.pre86, 0
  br i1 %.not64, label %.thread129, label %35

35:                                               ; preds = %34
  %strlen65 = tail call i64 @strlen(ptr nonnull dereferenceable(1) %1)
  %endptr66 = getelementptr inbounds i8, ptr %1, i64 %strlen65
  store i16 44, ptr %endptr66, align 1
  br label %.thread129

.thread129:                                       ; preds = %.thread125, %35, %34
  %strlen67 = tail call i64 @strlen(ptr nonnull dereferenceable(1) %1)
  %endptr68 = getelementptr inbounds i8, ptr %1, i64 %strlen67
  tail call void @llvm.memcpy.p0.p0.i64(ptr noundef nonnull align 1 dereferenceable(13) %endptr68, ptr noundef nonnull align 1 dereferenceable(13) @.str.401, i64 13, i1 false)
  %.pre83.pre84.pre = load i8, ptr %1, align 1
  br label %36

36:                                               ; preds = %.thread129, %31
  %.pre83.pre84 = phi i8 [ %.pre83.pre84.pre, %.thread129 ], [ %.pre83.pre84.pre86, %31 ]
  %37 = and i64 %9, 8
  %.not69 = icmp eq i64 %37, 0
  br i1 %.not69, label %41, label %39

.thread132:                                       ; preds = %.thread125
  %38 = and i64 %9, 8
  %.not69134 = icmp eq i64 %38, 0
  br i1 %.not69134, label %.thread139, label %.thread136

39:                                               ; preds = %36
  %.not70 = icmp eq i8 %.pre83.pre84, 0
  br i1 %.not70, label %.thread136, label %40

40:                                               ; preds = %39
  %strlen71 = tail call i64 @strlen(ptr nonnull dereferenceable(1) %1)
  %endptr72 = getelementptr inbounds i8, ptr %1, i64 %strlen71
  store i16 44, ptr %endptr72, align 1
  br label %.thread136

.thread136:                                       ; preds = %.thread132, %40, %39
  %strlen73 = tail call i64 @strlen(ptr nonnull dereferenceable(1) %1)
  %endptr74 = getelementptr inbounds i8, ptr %1, i64 %strlen73
  tail call void @llvm.memcpy.p0.p0.i64(ptr noundef nonnull align 1 dereferenceable(6) %endptr74, ptr noundef nonnull align 1 dereferenceable(6) @.str.402, i64 6, i1 false)
  %.pre83.pre = load i8, ptr %1, align 1
  br label %41

41:                                               ; preds = %.thread136, %36
  %.pre83 = phi i8 [ %.pre83.pre, %.thread136 ], [ %.pre83.pre84, %36 ]
  %42 = and i64 %9, 16
  %.not75 = icmp eq i64 %42, 0
  br i1 %.not75, label %46, label %44

.thread139:                                       ; preds = %.thread132
  %43 = and i64 %9, 16
  %.not75141 = icmp eq i64 %43, 0
  br i1 %.not75141, label %.thread146, label %.thread143

44:                                               ; preds = %41
  %.not76 = icmp eq i8 %.pre83, 0
  br i1 %.not76, label %.thread143, label %45

45:                                               ; preds = %44
  %strlen77 = tail call i64 @strlen(ptr nonnull dereferenceable(1) %1)
  %endptr78 = getelementptr inbounds i8, ptr %1, i64 %strlen77
  store i16 44, ptr %endptr78, align 1
  br label %.thread143

.thread143:                                       ; preds = %.thread139, %45, %44
  %strlen79 = tail call i64 @strlen(ptr nonnull dereferenceable(1) %1)
  %endptr80 = getelementptr inbounds i8, ptr %1, i64 %strlen79
  tail call void @llvm.memcpy.p0.p0.i64(ptr noundef nonnull align 1 dereferenceable(6) %endptr80, ptr noundef nonnull align 1 dereferenceable(6) @.str.403, i64 6, i1 false)
  %.pre = load i8, ptr %1, align 1
  br label %46

46:                                               ; preds = %.thread143, %41
  %47 = phi i8 [ %.pre, %.thread143 ], [ %.pre83, %41 ]
  %48 = icmp eq i8 %47, 0
  br i1 %48, label %.thread146, label %49

.thread146:                                       ; preds = %.thread139, %46
  %strlen81 = tail call i64 @strlen(ptr nonnull dereferenceable(1) %1)
  %endptr82 = getelementptr inbounds i8, ptr %1, i64 %strlen81
  tail call void @llvm.memcpy.p0.p0.i64(ptr noundef nonnull align 1 dereferenceable(5) %endptr82, ptr noundef nonnull align 1 dereferenceable(5) @.str.404, i64 5, i1 false)
  br label %49

49:                                               ; preds = %.thread146, %46, %.thread
  ret void
}